; Function Attrs: nounwind uwtable
define dso_local range(i32 0, 81) i32 @Curl_ssl_cfilter_remove(ptr noundef %0, i32 noundef %1) local_unnamed_addr #2 {
  %3 = getelementptr inbounds nuw i8, ptr %0, i64 32
  %4 = load ptr, ptr %3, align 8
  %.not = icmp eq ptr %4, null
  br i1 %.not, label %.loopexit, label %5

5:                                                ; preds = %2
  %6 = getelementptr inbounds nuw i8, ptr %4, i64 432
  %7 = sext i32 %1 to i64
  %8 = getelementptr inbounds [2 x ptr], ptr %6, i64 0, i64 %7
  %9 = load ptr, ptr %8, align 8
  %.not1417 = icmp eq ptr %9, null
  br i1 %.not1417, label %.loopexit, label %.lr.ph

.lr.ph:                                           ; preds = %5, %18
  %.01218 = phi ptr [ %20, %18 ], [ %9, %5 ]
  %10 = load ptr, ptr %.01218, align 8
  %11 = icmp eq ptr %10, @Curl_cft_ssl
  br i1 %11, label %12, label %18

12:                                               ; preds = %.lr.ph
  %13 = load ptr, ptr @Curl_ssl, align 8
  %14 = getelementptr inbounds nuw i8, ptr %13, i64 64
  %15 = load ptr, ptr %14, align 8
  %16 = tail call i32 %15(ptr noundef nonnull %.01218, ptr noundef %0) #18
  %.not15 = icmp eq i32 %16, 0
  %spec.select = select i1 %.not15, i32 0, i32 80
  %17 = tail call zeroext i1 @Curl_conn_cf_discard_sub(ptr noundef nonnull %9, ptr noundef nonnull %.01218, ptr noundef %0, i1 noundef zeroext false) #18
  br label %.loopexit

18:                                               ; preds = %.lr.ph
  %19 = getelementptr inbounds nuw i8, ptr %.01218, i64 8
  %20 = load ptr, ptr %19, align 8
  %.not14 = icmp eq ptr %20, null
  br i1 %.not14, label %.loopexit, label %.lr.ph, !llvm.loop !18

.loopexit:                                        ; preds = %18, %2, %5, %12
  %.0 = phi i32 [ %spec.select, %12 ], [ 0, %5 ], [ 0, %2 ], [ 0, %18 ]
  ret i32 %.0
}